; Function Attrs: mustprogress nofree norecurse nosync nounwind sspstrong willreturn memory(read, inaccessiblemem: none) uwtable
define dso_local range(i64 4, 34359738367) i64 @virtio_queue_get_used_size(ptr noundef readonly captures(none) %vdev, i32 noundef %n) local_unnamed_addr #2 {
entry:
  %0 = getelementptr i8, ptr %vdev, i64 184
  %vdev.val3 = load i64, ptr %0, align 8
  %and.i.i = and i64 %vdev.val3, 17179869184
  %tobool.i.i.not = icmp eq i64 %and.i.i, 0
  br i1 %tobool.i.i.not, label %if.end, label %return

if.end:                                           ; preds = %entry
  %vq = getelementptr inbounds nuw i8, ptr %vdev, i64 232
  %1 = load ptr, ptr %vq, align 8
  %idxprom = sext i32 %n to i64
  %arrayidx = getelementptr %struct.VirtQueue, ptr %1, i64 %idxprom
  %2 = load i32, ptr %arrayidx, align 8
  %conv = zext i32 %2 to i64
  %mul = shl nuw nsw i64 %conv, 3
  %and.i.i4 = lshr i64 %vdev.val3, 28
  %conv2 = and i64 %and.i.i4, 2
  %add = or disjoint i64 %mul, %conv2
  %add3 = or disjoint i64 %add, 4
  br label %return

return:                                           ; preds = %entry, %if.end
  %retval.0 = phi i64 [ %add3, %if.end ], [ 4, %entry ]
  ret i64 %retval.0
}